; Function Attrs: mustprogress nofree norecurse nosync nounwind willreturn memory(argmem: write) uwtable
define void @_ZN7rocksdb9cassandra14ExpiringColumnC2EaaliPKci(ptr noundef nonnull writeonly align 8 captures(none) dereferenceable(44) initializes((0, 10), (16, 28), (32, 44)) %0, i8 noundef signext %1, i8 noundef signext %2, i64 noundef %3, i32 noundef %4, ptr noundef %5, i32 noundef %6) unnamed_addr #0 align 2 {
  %8 = getelementptr inbounds nuw i8, ptr %0, i64 8
  store i8 %1, ptr %8, align 8, !tbaa !7
  %9 = getelementptr inbounds nuw i8, ptr %0, i64 9
  store i8 %2, ptr %9, align 1, !tbaa !10
  %10 = getelementptr inbounds nuw i8, ptr %0, i64 16
  store i64 %3, ptr %10, align 8, !tbaa !73
  %11 = getelementptr inbounds nuw i8, ptr %0, i64 24
  store i32 %4, ptr %11, align 8, !tbaa !75
  %12 = getelementptr inbounds nuw i8, ptr %0, i64 32
  store ptr %5, ptr %12, align 8, !tbaa !76
  store ptr getelementptr inbounds nuw inrange(-16, 56) (i8, ptr @_ZTVN7rocksdb9cassandra14ExpiringColumnE, i64 16), ptr %0, align 8, !tbaa !4
  %13 = getelementptr inbounds nuw i8, ptr %0, i64 40
  store i32 %6, ptr %13, align 8, !tbaa !79
  ret void
}